; Function Attrs: null_pointer_is_valid sspstrong uwtable
define internal noundef ptr @copy_someip_parameter_typedef_list_cb(ptr noundef returned writeonly captures(ret: address, provenance) initializes((0, 4), (8, 24)) %0, ptr noundef readonly captures(none) %1, i64 %2) #0 {
  %4 = getelementptr inbounds nuw i8, ptr %1, i64 8
  %5 = load ptr, ptr %4, align 8
  %.not = icmp eq ptr %5, null
  br i1 %.not, label %8, label %6

6:                                                ; preds = %3
  %7 = tail call noalias ptr @g_strdup(ptr noundef nonnull %5)
  br label %8

8:                                                ; preds = %3, %6
  %.sink = phi ptr [ %7, %6 ], [ null, %3 ]
  %9 = getelementptr inbounds nuw i8, ptr %0, i64 8
  store ptr %.sink, ptr %9, align 8
  %10 = load i32, ptr %1, align 8
  store i32 %10, ptr %0, align 8
  %11 = getelementptr inbounds nuw i8, ptr %1, i64 16
  %12 = load i32, ptr %11, align 8
  %13 = getelementptr inbounds nuw i8, ptr %0, i64 16
  store i32 %12, ptr %13, align 8
  %14 = getelementptr inbounds nuw i8, ptr %1, i64 20
  %15 = load i32, ptr %14, align 4
  %16 = getelementptr inbounds nuw i8, ptr %0, i64 20
  store i32 %15, ptr %16, align 4
  ret ptr %0
}